target datalayout = "e-m:e-p270:32:32-p271:32:32-p272:64:64-i64:64-i128:128-f80:128-n8:16:32:64-S128"
target triple = "x86_64-pc-linux-gnu"

%struct.ThreadQueue = type { ptr, i32, i32, ptr, ptr, %union.pthread_mutex_t, %union.pthread_cond_t }
%union.pthread_mutex_t = type { %struct.__pthread_mutex_s }
%struct.__pthread_mutex_s = type { i32, i32, i32, i32, i32, i16, i16, %struct.__pthread_internal_list }
%struct.__pthread_internal_list = type { ptr, ptr }
%union.pthread_cond_t = type { %struct.__pthread_cond_s }
%struct.__pthread_cond_s = type { %union.__atomic_wide_counter, %union.__atomic_wide_counter, [2 x i32], [2 x i32], i32, i32, [2 x i32] }
%union.__atomic_wide_counter = type { i64 }

@.str = private unnamed_addr constant [30 x i8] c"Assertion %s failed at %s:%d\0A\00", align 1
@.str.2 = private unnamed_addr constant [23 x i8] c"fftools/thread_queue.c\00", align 1
@.str.3 = private unnamed_addr constant [9 x i8] c"ret >= 0\00", align 1

; Function Attrs: nounwind uwtable
define internal i32 @receive_locked(ptr noundef %0, ptr noundef %1, ptr noundef %2) #0 {
  %4 = alloca i32, align 4
  %5 = alloca ptr, align 8
  %6 = alloca ptr, align 8
  %7 = alloca ptr, align 8
  %8 = alloca i32, align 4
  %9 = alloca i32, align 4
  %10 = alloca i32, align 4
  %11 = alloca i32, align 4
  %12 = alloca i32, align 4
  store ptr %0, ptr %5, align 8, !tbaa !10
  store ptr %1, ptr %6, align 8, !tbaa !26
  store ptr %2, ptr %7, align 8, !tbaa !25
  call void @llvm.lifetime.start.p0(i64 4, ptr %8) #5
  store i32 0, ptr %8, align 4, !tbaa !12
  br label %13

13:                                               ; preds = %54, %3
  %14 = load ptr, ptr %5, align 8, !tbaa !10
  %15 = getelementptr inbounds nuw %struct.ThreadQueue, ptr %14, i32 0, i32 3
  %16 = load ptr, ptr %15, align 8, !tbaa !23
  %17 = load ptr, ptr %7, align 8, !tbaa !25
  %18 = call i32 @av_container_fifo_read(ptr noundef %16, ptr noundef %17, i32 noundef 0)
  %19 = icmp sge i32 %18, 0
  br i1 %19, label %20, label %56

20:                                               ; preds = %13
  call void @llvm.lifetime.start.p0(i64 4, ptr %9) #5
  call void @llvm.lifetime.start.p0(i64 4, ptr %10) #5
  %21 = load ptr, ptr %5, align 8, !tbaa !10
  %22 = getelementptr inbounds nuw %struct.ThreadQueue, ptr %21, i32 0, i32 4
  %23 = load ptr, ptr %22, align 8, !tbaa !24
  %24 = call i32 @av_fifo_read(ptr noundef %23, ptr noundef %9, i64 noundef 1)
  store i32 %24, ptr %10, align 4, !tbaa !12
  br label %25

25:                                               ; preds = %20
  %26 = load i32, ptr %10, align 4, !tbaa !12
  %27 = icmp sge i32 %26, 0
  br i1 %27, label %29, label %28

28:                                               ; preds = %25
  call void (ptr, i32, ptr, ...) @av_log(ptr noundef null, i32 noundef 0, ptr noundef @.str, ptr noundef @.str.3, ptr noundef @.str.2, i32 noundef 165)
  call void @abort() #6
  unreachable

29:                                               ; preds = %25
  br label %30

30:                                               ; preds = %29
  br label %31

31:                                               ; preds = %30
  %32 = load ptr, ptr %5, align 8, !tbaa !10
  %33 = getelementptr inbounds nuw %struct.ThreadQueue, ptr %32, i32 0, i32 0
  %34 = load ptr, ptr %33, align 8, !tbaa !16
  %35 = load i32, ptr %9, align 4, !tbaa !12
  %36 = zext i32 %35 to i64
  %37 = getelementptr inbounds nuw i32, ptr %34, i64 %36
  %38 = load i32, ptr %37, align 4, !tbaa !12
  %39 = and i32 %38, 2
  %40 = icmp ne i32 %39, 0
  br i1 %40, label %41, label %51

41:                                               ; preds = %31
  %42 = load ptr, ptr %5, align 8, !tbaa !10
  %43 = getelementptr inbounds nuw %struct.ThreadQueue, ptr %42, i32 0, i32 2
  %44 = load i32, ptr %43, align 4, !tbaa !22
  %45 = icmp eq i32 %44, 0
  br i1 %45, label %46, label %48

46:                                               ; preds = %41
  %47 = load ptr, ptr %7, align 8, !tbaa !25
  call void @av_frame_unref(ptr noundef %47)
  br label %50

48:                                               ; preds = %41
  %49 = load ptr, ptr %7, align 8, !tbaa !25
  call void @av_packet_unref(ptr noundef %49)
  br label %50

50:                                               ; preds = %48, %46
  store i32 2, ptr %11, align 4
  br label %54, !llvm.loop !29

51:                                               ; preds = %31
  %52 = load i32, ptr %9, align 4, !tbaa !12
  %53 = load ptr, ptr %6, align 8, !tbaa !26
  store i32 %52, ptr %53, align 4, !tbaa !12
  store i32 0, ptr %4, align 4
  store i32 1, ptr %11, align 4
  br label %54

54:                                               ; preds = %51, %50
  call void @llvm.lifetime.end.p0(i64 4, ptr %10) #5
  call void @llvm.lifetime.end.p0(i64 4, ptr %9) #5
  %55 = load i32, ptr %11, align 4
  switch i32 %55, label %110 [
    i32 2, label %13
  ]

56:                                               ; preds = %13
  call void @llvm.lifetime.start.p0(i64 4, ptr %12) #5
  store i32 0, ptr %12, align 4, !tbaa !12
  br label %57

57:                                               ; preds = %98, %56
  %58 = load i32, ptr %12, align 4, !tbaa !12
  %59 = load ptr, ptr %5, align 8, !tbaa !10
  %60 = getelementptr inbounds nuw %struct.ThreadQueue, ptr %59, i32 0, i32 1
  %61 = load i32, ptr %60, align 8, !tbaa !21
  %62 = icmp ult i32 %58, %61
  br i1 %62, label %64, label %63

63:                                               ; preds = %57
  store i32 6, ptr %11, align 4
  br label %101

64:                                               ; preds = %57
  %65 = load ptr, ptr %5, align 8, !tbaa !10
  %66 = getelementptr inbounds nuw %struct.ThreadQueue, ptr %65, i32 0, i32 0
  %67 = load ptr, ptr %66, align 8, !tbaa !16
  %68 = load i32, ptr %12, align 4, !tbaa !12
  %69 = zext i32 %68 to i64
  %70 = getelementptr inbounds nuw i32, ptr %67, i64 %69
  %71 = load i32, ptr %70, align 4, !tbaa !12
  %72 = icmp ne i32 %71, 0
  br i1 %72, label %74, label %73

73:                                               ; preds = %64
  br label %98

74:                                               ; preds = %64
  %75 = load ptr, ptr %5, align 8, !tbaa !10
  %76 = getelementptr inbounds nuw %struct.ThreadQueue, ptr %75, i32 0, i32 0
  %77 = load ptr, ptr %76, align 8, !tbaa !16
  %78 = load i32, ptr %12, align 4, !tbaa !12
  %79 = zext i32 %78 to i64
  %80 = getelementptr inbounds nuw i32, ptr %77, i64 %79
  %81 = load i32, ptr %80, align 4, !tbaa !12
  %82 = and i32 %81, 2
  %83 = icmp ne i32 %82, 0
  br i1 %83, label %95, label %84

84:                                               ; preds = %74
  %85 = load ptr, ptr %5, align 8, !tbaa !10
  %86 = getelementptr inbounds nuw %struct.ThreadQueue, ptr %85, i32 0, i32 0
  %87 = load ptr, ptr %86, align 8, !tbaa !16
  %88 = load i32, ptr %12, align 4, !tbaa !12
  %89 = zext i32 %88 to i64
  %90 = getelementptr inbounds nuw i32, ptr %87, i64 %89
  %91 = load i32, ptr %90, align 4, !tbaa !12
  %92 = or i32 %91, 2
  store i32 %92, ptr %90, align 4, !tbaa !12
  %93 = load i32, ptr %12, align 4, !tbaa !12
  %94 = load ptr, ptr %6, align 8, !tbaa !26
  store i32 %93, ptr %94, align 4, !tbaa !12
  store i32 -541478725, ptr %4, align 4
  store i32 1, ptr %11, align 4
  br label %101

95:                                               ; preds = %74
  %96 = load i32, ptr %8, align 4, !tbaa !12
  %97 = add i32 %96, 1
  store i32 %97, ptr %8, align 4, !tbaa !12
  br label %98

98:                                               ; preds = %95, %73
  %99 = load i32, ptr %12, align 4, !tbaa !12
  %100 = add i32 %99, 1
  store i32 %100, ptr %12, align 4, !tbaa !12
  br label %57, !llvm.loop !30

101:                                              ; preds = %84, %63
  call void @llvm.lifetime.end.p0(i64 4, ptr %12) #5
  %102 = load i32, ptr %11, align 4
  switch i32 %102, label %110 [
    i32 6, label %103
  ]

103:                                              ; preds = %101
  %104 = load i32, ptr %8, align 4, !tbaa !12
  %105 = load ptr, ptr %5, align 8, !tbaa !10
  %106 = getelementptr inbounds nuw %struct.ThreadQueue, ptr %105, i32 0, i32 1
  %107 = load i32, ptr %106, align 8, !tbaa !21
  %108 = icmp eq i32 %104, %107
  %109 = select i1 %108, i32 -541478725, i32 -11
  store i32 %109, ptr %4, align 4
  store i32 1, ptr %11, align 4
  br label %110

110:                                              ; preds = %103, %101, %54
  call void @llvm.lifetime.end.p0(i64 4, ptr %8) #5
  %111 = load i32, ptr %4, align 4
  ret i32 %111
}

; Function Attrs: nounwind uwtable
define i32 @tq_receive(ptr noundef %0, ptr noundef %1, ptr noundef %2) #0 {
  %4 = alloca ptr, align 8
  %5 = alloca ptr, align 8
  %6 = alloca ptr, align 8
  %7 = alloca i32, align 4
  %8 = alloca i64, align 8
  %9 = alloca i32, align 4
  store ptr %0, ptr %4, align 8, !tbaa !10
  store ptr %1, ptr %5, align 8, !tbaa !26
  store ptr %2, ptr %6, align 8, !tbaa !25
  call void @llvm.lifetime.start.p0(i64 4, ptr %7) #5
  %10 = load ptr, ptr %5, align 8, !tbaa !26
  store i32 -1, ptr %10, align 4, !tbaa !12
  %11 = load ptr, ptr %4, align 8, !tbaa !10
  %12 = getelementptr inbounds nuw %struct.ThreadQueue, ptr %11, i32 0, i32 5
  %13 = call i32 @pthread_mutex_lock(ptr noundef %12) #5
  br label %14

14:                                               ; preds = %44, %3
  br label %15

15:                                               ; preds = %14
  call void @llvm.lifetime.start.p0(i64 8, ptr %8) #5
  %16 = load ptr, ptr %4, align 8, !tbaa !10
  %17 = getelementptr inbounds nuw %struct.ThreadQueue, ptr %16, i32 0, i32 3
  %18 = load ptr, ptr %17, align 8, !tbaa !23
  %19 = call i64 @av_container_fifo_can_read(ptr noundef %18)
  store i64 %19, ptr %8, align 8, !tbaa !14
  %20 = load ptr, ptr %4, align 8, !tbaa !10
  %21 = load ptr, ptr %5, align 8, !tbaa !26
  %22 = load ptr, ptr %6, align 8, !tbaa !25
  %23 = call i32 @receive_locked(ptr noundef %20, ptr noundef %21, ptr noundef %22)
  store i32 %23, ptr %7, align 4, !tbaa !12
  %24 = load i64, ptr %8, align 8, !tbaa !14
  %25 = load ptr, ptr %4, align 8, !tbaa !10
  %26 = getelementptr inbounds nuw %struct.ThreadQueue, ptr %25, i32 0, i32 3
  %27 = load ptr, ptr %26, align 8, !tbaa !23
  %28 = call i64 @av_container_fifo_can_read(ptr noundef %27)
  %29 = icmp ne i64 %24, %28
  br i1 %29, label %30, label %34

30:                                               ; preds = %15
  %31 = load ptr, ptr %4, align 8, !tbaa !10
  %32 = getelementptr inbounds nuw %struct.ThreadQueue, ptr %31, i32 0, i32 6
  %33 = call i32 @pthread_cond_broadcast(ptr noundef %32) #5
  br label %34

34:                                               ; preds = %30, %15
  %35 = load i32, ptr %7, align 4, !tbaa !12
  %36 = icmp eq i32 %35, -11
  br i1 %36, label %37, label %43

37:                                               ; preds = %34
  %38 = load ptr, ptr %4, align 8, !tbaa !10
  %39 = getelementptr inbounds nuw %struct.ThreadQueue, ptr %38, i32 0, i32 6
  %40 = load ptr, ptr %4, align 8, !tbaa !10
  %41 = getelementptr inbounds nuw %struct.ThreadQueue, ptr %40, i32 0, i32 5
  %42 = call i32 @pthread_cond_wait(ptr noundef %39, ptr noundef %41)
  store i32 2, ptr %9, align 4
  br label %44

43:                                               ; preds = %34
  store i32 3, ptr %9, align 4
  br label %44

44:                                               ; preds = %43, %37
  call void @llvm.lifetime.end.p0(i64 8, ptr %8) #5
  %45 = load i32, ptr %9, align 4
  switch i32 %45, label %51 [
    i32 2, label %14
    i32 3, label %46
  ]

46:                                               ; preds = %44
  %47 = load ptr, ptr %4, align 8, !tbaa !10
  %48 = getelementptr inbounds nuw %struct.ThreadQueue, ptr %47, i32 0, i32 5
  %49 = call i32 @pthread_mutex_unlock(ptr noundef %48) #5
  %50 = load i32, ptr %7, align 4, !tbaa !12
  store i32 1, ptr %9, align 4
  call void @llvm.lifetime.end.p0(i64 4, ptr %7) #5
  ret i32 %50

51:                                               ; preds = %44
  unreachable
}