; Function Attrs: nounwind uwtable
define range(i32 -541478725, 1) i32 @tq_receive(ptr noundef %0, ptr noundef writeonly captures(none) initializes((0, 4)) %1, ptr noundef %2) local_unnamed_addr #0 {
  %4 = alloca i32, align 4
  store i32 -1, ptr %1, align 4, !tbaa !19
  %5 = getelementptr inbounds nuw i8, ptr %0, i64 32
  %6 = tail call i32 @pthread_mutex_lock(ptr noundef nonnull %5) #5
  %7 = getelementptr inbounds nuw i8, ptr %0, i64 16
  %8 = getelementptr inbounds nuw i8, ptr %0, i64 24
  %9 = getelementptr inbounds nuw i8, ptr %0, i64 12
  %10 = getelementptr inbounds nuw i8, ptr %0, i64 8
  %11 = getelementptr inbounds nuw i8, ptr %0, i64 72
  br label %12

12:                                               ; preds = %59, %3
  %13 = load ptr, ptr %7, align 8, !tbaa !17
  %14 = call i64 @av_container_fifo_can_read(ptr noundef %13) #5
  %15 = load ptr, ptr %7, align 8, !tbaa !17
  %16 = call i32 @av_container_fifo_read(ptr noundef %15, ptr noundef %2, i32 noundef 0) #5
  %17 = icmp sgt i32 %16, -1
  br i1 %17, label %.lr.ph.i, label %.preheader.i

.preheader.i:                                     ; preds = %36, %12
  %18 = load i32, ptr %10, align 8, !tbaa !15
  %.not3345.not.i = icmp eq i32 %18, 0
  br i1 %.not3345.not.i, label %._crit_edge.i, label %.lr.ph48.i

.lr.ph48.i:                                       ; preds = %.preheader.i
  %19 = load ptr, ptr %0, align 8, !tbaa !9
  %wide.trip.count.i = zext i32 %18 to i64
  br label %40

.lr.ph.i:                                         ; preds = %12, %36
  call void @llvm.lifetime.start.p0(i64 4, ptr nonnull %4) #5
  %20 = load ptr, ptr %8, align 8, !tbaa !18
  %21 = call i32 @av_fifo_read(ptr noundef %20, ptr noundef nonnull %4, i64 noundef 1) #5
  %22 = icmp sgt i32 %21, -1
  br i1 %22, label %24, label %23

23:                                               ; preds = %.lr.ph.i
  call void (ptr, i32, ptr, ...) @av_log(ptr noundef null, i32 noundef 0, ptr noundef nonnull @.str, ptr noundef nonnull @.str.3, ptr noundef nonnull @.str.2, i32 noundef 165) #5
  call void @abort() #6
  unreachable

24:                                               ; preds = %.lr.ph.i
  %25 = load ptr, ptr %0, align 8, !tbaa !9
  %26 = load i32, ptr %4, align 4, !tbaa !19
  %27 = zext i32 %26 to i64
  %28 = getelementptr inbounds nuw i32, ptr %25, i64 %27
  %29 = load i32, ptr %28, align 4, !tbaa !19
  %30 = and i32 %29, 2
  %.not34.not.i = icmp eq i32 %30, 0
  br i1 %.not34.not.i, label %.thread.i, label %31

31:                                               ; preds = %24
  %32 = load i32, ptr %9, align 4, !tbaa !16
  %33 = icmp eq i32 %32, 0
  br i1 %33, label %34, label %35

34:                                               ; preds = %31
  call void @av_frame_unref(ptr noundef %2) #5
  br label %36, !llvm.loop !22

35:                                               ; preds = %31
  call void @av_packet_unref(ptr noundef %2) #5
  br label %36, !llvm.loop !22

.thread.i:                                        ; preds = %24
  store i32 %26, ptr %1, align 4, !tbaa !19
  call void @llvm.lifetime.end.p0(i64 4, ptr nonnull %4) #5
  br label %receive_locked.exit

36:                                               ; preds = %35, %34
  call void @llvm.lifetime.end.p0(i64 4, ptr nonnull %4) #5
  %37 = load ptr, ptr %7, align 8, !tbaa !17
  %38 = call i32 @av_container_fifo_read(ptr noundef %37, ptr noundef %2, i32 noundef 0) #5
  %39 = icmp sgt i32 %38, -1
  br i1 %39, label %.lr.ph.i, label %.preheader.i

40:                                               ; preds = %50, %.lr.ph48.i
  %indvars.iv.i = phi i64 [ 0, %.lr.ph48.i ], [ %indvars.iv.next.i, %50 ]
  %.02946.i = phi i32 [ 0, %.lr.ph48.i ], [ %.130.i, %50 ]
  %41 = getelementptr inbounds nuw i32, ptr %19, i64 %indvars.iv.i
  %42 = load i32, ptr %41, align 4, !tbaa !19
  %.not.i = icmp eq i32 %42, 0
  br i1 %.not.i, label %50, label %43

43:                                               ; preds = %40
  %44 = and i32 %42, 2
  %.not32.i = icmp eq i32 %44, 0
  br i1 %.not32.i, label %.thread35.i, label %48

.thread35.i:                                      ; preds = %43
  %45 = getelementptr inbounds nuw i32, ptr %19, i64 %indvars.iv.i
  %46 = trunc nuw i64 %indvars.iv.i to i32
  %47 = or disjoint i32 %42, 2
  store i32 %47, ptr %45, align 4, !tbaa !19
  store i32 %46, ptr %1, align 4, !tbaa !19
  br label %receive_locked.exit

48:                                               ; preds = %43
  %49 = add i32 %.02946.i, 1
  br label %50

50:                                               ; preds = %48, %40
  %.130.i = phi i32 [ %49, %48 ], [ %.02946.i, %40 ]
  %indvars.iv.next.i = add nuw nsw i64 %indvars.iv.i, 1
  %exitcond.not.i = icmp eq i64 %indvars.iv.next.i, %wide.trip.count.i
  br i1 %exitcond.not.i, label %._crit_edge.i, label %40, !llvm.loop !23

._crit_edge.i:                                    ; preds = %50, %.preheader.i
  %.029.lcssa.i = phi i32 [ 0, %.preheader.i ], [ %.130.i, %50 ]
  %51 = icmp eq i32 %.029.lcssa.i, %18
  %52 = select i1 %51, i32 -541478725, i32 -11
  br label %receive_locked.exit

receive_locked.exit:                              ; preds = %.thread.i, %.thread35.i, %._crit_edge.i
  %.2.i = phi i32 [ %52, %._crit_edge.i ], [ 0, %.thread.i ], [ -541478725, %.thread35.i ]
  %53 = load ptr, ptr %7, align 8, !tbaa !17
  %54 = call i64 @av_container_fifo_can_read(ptr noundef %53) #5
  %.not = icmp eq i64 %14, %54
  br i1 %.not, label %57, label %55

55:                                               ; preds = %receive_locked.exit
  %56 = call i32 @pthread_cond_broadcast(ptr noundef nonnull %11) #5
  br label %57

57:                                               ; preds = %55, %receive_locked.exit
  %58 = icmp eq i32 %.2.i, -11
  br i1 %58, label %59, label %61

59:                                               ; preds = %57
  %60 = call i32 @pthread_cond_wait(ptr noundef nonnull %11, ptr noundef nonnull %5) #5
  br label %12

61:                                               ; preds = %57
  %62 = call i32 @pthread_mutex_unlock(ptr noundef nonnull %5) #5
  ret i32 %.2.i
}